; ModuleID = 'bench/graphviz/original/gvprmain.ll'
source_filename = "bench/graphviz/original/gvprmain.ll"
target datalayout = "e-m:e-p270:32:32-p271:32:32-p272:64:64-i64:64-i128:128-f80:128-n8:16:32:64-S128"
target triple = "x86_64-pc-linux-gnu"

%struct.gvpropts = type { ptr, i64, ptr, ptr, ptr, i32, ptr }

; Function Attrs: noreturn nounwind uwtable
define dso_local noundef i32 @main(i32 noundef %0, ptr noundef %1) local_unnamed_addr #0 {
  %3 = alloca %struct.gvpropts, align 8
  call void @llvm.lifetime.start.p0(i64 56, ptr nonnull %3) #6
  store ptr null, ptr %3, align 8, !tbaa !4
  %4 = getelementptr inbounds nuw i8, ptr %3, i64 24
  %5 = getelementptr inbounds nuw i8, ptr %3, i64 40
  call void @llvm.memset.p0.i64(ptr noundef nonnull align 8 dereferenceable(16) %4, i8 0, i64 16, i1 false)
  store i32 1, ptr %5, align 8, !tbaa !12
  %6 = getelementptr inbounds nuw i8, ptr %3, i64 48
  store ptr null, ptr %6, align 8, !tbaa !13
  %7 = call i32 @gvpr(i32 noundef %0, ptr noundef %1, ptr noundef nonnull %3) #6
  call fastcc void @graphviz_exit(i32 noundef %7) #7
  unreachable
}

; Function Attrs: mustprogress nocallback nofree nosync nounwind willreturn memory(argmem: readwrite)
declare void @llvm.lifetime.start.p0(i64 immarg, ptr captures(none)) #1

; Function Attrs: inlinehint nofree noreturn nounwind uwtable
define internal fastcc void @graphviz_exit(i32 noundef %0) unnamed_addr #2 {
  tail call void @exit(i32 noundef %0) #8
  unreachable
}

declare i32 @gvpr(i32 noundef, ptr noundef, ptr noundef) local_unnamed_addr #3

; Function Attrs: nofree noreturn nounwind
declare void @exit(i32 noundef) local_unnamed_addr #4

; Function Attrs: nocallback nofree nounwind willreturn memory(argmem: write)
declare void @llvm.memset.p0.i64(ptr writeonly captures(none), i8, i64, i1 immarg) #5


!llvm.module.flags = !{!0, !1, !2, !3}

!0 = !{i32 1, !"wchar_size", i32 4}
!1 = !{i32 8, !"PIC Level", i32 2}
!2 = !{i32 7, !"PIE Level", i32 2}
!3 = !{i32 7, !"uwtable", i32 2}
!4 = !{!5, !6, i64 0}
!5 = !{!"", !6, i64 0, !10, i64 8, !6, i64 16, !7, i64 24, !7, i64 32, !11, i64 40, !7, i64 48}
!6 = !{!"p2 _ZTS8Agraph_s", !7, i64 0}
!7 = !{!"any pointer", !8, i64 0}
!8 = !{!"omnipotent char", !9, i64 0}
!9 = !{!"Simple C/C++ TBAA"}
!10 = !{!"long", !8, i64 0}
!11 = !{!"int", !8, i64 0}
!12 = !{!5, !11, i64 40}
!13 = !{!5, !7, i64 48}
